; Function Attrs: nounwind uwtable
define internal void @be_filter_readcb(ptr noundef readonly captures(none) %0, ptr noundef %1) #0 {
  %3 = getelementptr inbounds nuw i8, ptr %1, i64 448
  %4 = load ptr, ptr %3, align 8
  %.not = icmp eq ptr %4, null
  br i1 %.not, label %8, label %5

5:                                                ; preds = %2
  %6 = load ptr, ptr getelementptr inbounds nuw (i8, ptr @evthread_lock_fns_, i64 24), align 8
  %7 = tail call i32 %6(i32 noundef 0, ptr noundef nonnull %4) #3
  br label %8

8:                                                ; preds = %5, %2
  tail call fastcc void @be_filter_read_nolock_(ptr noundef %0, ptr noundef nonnull %1)
  %9 = load ptr, ptr %3, align 8
  %.not11 = icmp eq ptr %9, null
  br i1 %.not11, label %13, label %10

10:                                               ; preds = %8
  %11 = load ptr, ptr getelementptr inbounds nuw (i8, ptr @evthread_lock_fns_, i64 32), align 8
  %12 = tail call i32 %11(i32 noundef 0, ptr noundef nonnull %9) #3
  br label %13

13:                                               ; preds = %10, %8
  ret void
}